; ModuleID = 'bench/arrow/original/unreachable.ll'
source_filename = "bench/arrow/original/unreachable.ll"
target datalayout = "e-m:e-p270:32:32-p271:32:32-p272:64:64-i64:64-i128:128-f80:128-n8:16:32:64-S128"
target triple = "x86_64-pc-linux-gnu"

; Function Attrs: cold mustprogress nofree noreturn nounwind uwtable
define void @_ZN5arrow11UnreachableEPKc(ptr noundef readnone captures(none) %0) local_unnamed_addr #0 {
  tail call void @abort() #2
  unreachable
}

; Function Attrs: cold nofree noreturn nounwind
declare void @abort() local_unnamed_addr #1

; Function Attrs: cold mustprogress nofree noreturn nounwind uwtable
define void @_ZN5arrow11UnreachableESt17basic_string_viewIcSt11char_traitsIcEE(i64 %0, ptr readnone captures(none) %1) local_unnamed_addr #0 {
  tail call void @abort() #2
  unreachable
}


!llvm.module.flags = !{!0, !1, !2}

!0 = !{i32 1, !"wchar_size", i32 4}
!1 = !{i32 8, !"PIC Level", i32 2}
!2 = !{i32 7, !"uwtable", i32 2}
